target datalayout = "e-m:e-p270:32:32-p271:32:32-p272:64:64-i64:64-i128:128-f80:128-n8:16:32:64-S128"
target triple = "x86_64-pc-linux-gnu"

%struct.wtap_packet_header = type { i32, i32, i32, i32, %union.wtap_pseudo_header }
%union.wtap_pseudo_header = type { %struct.erf_mc_phdr }
%struct.erf_mc_phdr = type { %struct.erf_phdr, [16 x %struct.erf_ehdr], %union.anon.1 }
%struct.erf_phdr = type { i64, i8, i8, i16, i16, i16 }
%struct.erf_ehdr = type { i64 }
%union.anon.1 = type { i32 }

; Function Attrs: alwaysinline nounwind
define internal ptr @memmove.inline(ptr %0, ptr %1, i64 %2) #5 {
  %4 = alloca ptr, align 8
  %5 = alloca ptr, align 8
  %6 = alloca i64, align 8
  store ptr %0, ptr %4, align 8
  store ptr %1, ptr %5, align 8
  store i64 %2, ptr %6, align 8
  %7 = load ptr, ptr %4, align 8
  %8 = load ptr, ptr %5, align 8
  %9 = load i64, ptr %6, align 8
  %10 = load ptr, ptr %4, align 8
  %11 = call i64 @llvm.objectsize.i64.p0(ptr %10, i1 false, i1 true, i1 true)
  %12 = call ptr @__memmove_chk(ptr noundef %7, ptr noundef %8, i64 noundef %9, i64 noundef %11) #14
  ret ptr %12
}

; Function Attrs: inlinehint nounwind null_pointer_is_valid sspstrong uwtable
define internal zeroext i16 @pntoh16(ptr noundef %0) #12 {
  %2 = alloca ptr, align 8
  store ptr %0, ptr %2, align 8
  %3 = load ptr, ptr %2, align 8
  %4 = getelementptr i8, ptr %3, i64 0
  %5 = load i8, ptr %4, align 1
  %6 = zext i8 %5 to i16
  %7 = zext i16 %6 to i32
  %8 = shl i32 %7, 8
  %9 = load ptr, ptr %2, align 8
  %10 = getelementptr i8, ptr %9, i64 1
  %11 = load i8, ptr %10, align 1
  %12 = zext i8 %11 to i16
  %13 = zext i16 %12 to i32
  %14 = shl i32 %13, 0
  %15 = or i32 %8, %14
  %16 = trunc i32 %15 to i16
  ret i16 %16
}

; Function Attrs: nounwind null_pointer_is_valid sspstrong uwtable
define internal void @sll_remove_vlan_info(ptr noundef %0, ptr noundef %1) #8 {
  %3 = alloca ptr, align 8
  %4 = alloca ptr, align 8
  %5 = alloca i32, align 4
  store ptr %0, ptr %3, align 8
  store ptr %1, ptr %4, align 8
  %6 = load ptr, ptr %3, align 8
  %7 = getelementptr i8, ptr %6, i64 14
  %8 = call zeroext i16 @pntoh16(ptr noundef %7)
  %9 = zext i16 %8 to i32
  %10 = icmp eq i32 %9, 33024
  br i1 %10, label %11, label %28

11:                                               ; preds = %2
  call void @llvm.lifetime.start.p0(i64 4, ptr %5) #14
  %12 = load ptr, ptr %3, align 8
  %13 = getelementptr i8, ptr %12, i64 14
  store ptr %13, ptr %3, align 8
  %14 = load ptr, ptr %4, align 8
  %15 = load i32, ptr %14, align 4
  %16 = zext i32 %15 to i64
  %17 = sub i64 %16, 18
  %18 = trunc i64 %17 to i32
  store i32 %18, ptr %5, align 4
  %19 = load ptr, ptr %3, align 8
  %20 = load ptr, ptr %3, align 8
  %21 = getelementptr i8, ptr %20, i64 4
  %22 = load i32, ptr %5, align 4
  %23 = sext i32 %22 to i64
  %24 = call ptr @memmove.inline(ptr noundef %19, ptr noundef %21, i64 noundef %23) #14
  %25 = load ptr, ptr %4, align 8
  %26 = load i32, ptr %25, align 4
  %27 = sub i32 %26, 4
  store i32 %27, ptr %25, align 4
  call void @llvm.lifetime.end.p0(i64 4, ptr %5) #14
  br label %28

28:                                               ; preds = %11, %2
  ret void
}

; Function Attrs: null_pointer_is_valid sspstrong uwtable
define internal void @remove_vlan_info(ptr noundef %0, ptr noundef %1) #0 {
  %3 = alloca ptr, align 8
  %4 = alloca ptr, align 8
  store ptr %0, ptr %3, align 8
  store ptr %1, ptr %4, align 8
  %5 = load ptr, ptr %3, align 8
  %6 = getelementptr inbounds nuw %struct.wtap_packet_header, ptr %5, i32 0, i32 2
  %7 = load i32, ptr %6, align 8
  switch i32 %7, label %12 [
    i32 25, label %8
  ]

8:                                                ; preds = %2
  %9 = load ptr, ptr %4, align 8
  %10 = load ptr, ptr %3, align 8
  %11 = getelementptr inbounds nuw %struct.wtap_packet_header, ptr %10, i32 0, i32 0
  call void @sll_remove_vlan_info(ptr noundef %9, ptr noundef %11)
  br label %13

12:                                               ; preds = %2
  br label %13

13:                                               ; preds = %12, %8
  ret void
}