; Function Attrs: nofree nounwind null_pointer_is_valid sspstrong uwtable
define internal fastcc void @remove_vlan_info(ptr noundef captures(none) %0, ptr noundef %1) unnamed_addr #13 {
  %3 = getelementptr inbounds nuw i8, ptr %0, i64 8
  %4 = load i32, ptr %3, align 8
  %cond = icmp eq i32 %4, 25
  br i1 %cond, label %5, label %sll_remove_vlan_info.exit

5:                                                ; preds = %2
  %6 = getelementptr i8, ptr %1, i64 14
  %.val.i = load i8, ptr %6, align 1
  %7 = getelementptr i8, ptr %1, i64 15
  %.val6.i = load i8, ptr %7, align 1
  %8 = zext i8 %.val.i to i16
  %9 = shl nuw i16 %8, 8
  %10 = zext i8 %.val6.i to i16
  %11 = or disjoint i16 %9, %10
  %12 = icmp eq i16 %11, -32512
  br i1 %12, label %13, label %sll_remove_vlan_info.exit

13:                                               ; preds = %5
  %14 = load i32, ptr %0, align 4
  %15 = add i32 %14, -18
  %16 = getelementptr i8, ptr %1, i64 18
  %17 = sext i32 %15 to i64
  tail call void @llvm.memmove.p0.p0.i64(ptr noundef align 1 %6, ptr noundef align 1 %16, i64 noundef range(i64 -2147483648, 4294967296) %17, i1 noundef false) #21
  %18 = load i32, ptr %0, align 4
  %19 = add i32 %18, -4
  store i32 %19, ptr %0, align 4
  br label %sll_remove_vlan_info.exit

sll_remove_vlan_info.exit:                        ; preds = %13, %5, %2
  ret void
}